; Function Attrs: mustprogress uwtable
define dso_local void @_Z7GetInfoIN32pxrInternal_v0_24__pxrReserved__7GfQuatdEEvPNS0_7VtArrayIT_EEPNSt7__cxx1112basic_stringIcSt11char_traitsIcESaIcEEE(ptr noundef %0, ptr noundef nonnull %1) local_unnamed_addr #3 personality ptr @__gxx_personality_v0 {
  %3 = alloca %"class.pxrInternal_v0_24__pxrReserved__::VtArray.104", align 8
  %4 = tail call noundef nonnull align 8 dereferenceable(32) ptr @_ZNSt7__cxx1112basic_stringIcSt11char_traitsIcESaIcEEaSEPKc(ptr noundef nonnull align 8 dereferenceable(32) %1, ptr noundef nonnull @.str.79)
  call void @_ZN32pxrInternal_v0_24__pxrReserved__7VtArrayINS_7GfQuatdEEC1Em(ptr noundef nonnull align 8 dereferenceable(40) %3, i64 noundef 3)
  %5 = invoke noundef nonnull align 8 dereferenceable(40) ptr @_ZN32pxrInternal_v0_24__pxrReserved__7VtArrayINS_7GfQuatdEEaSEOS2_(ptr noundef nonnull align 8 dereferenceable(40) %0, ptr noundef nonnull align 8 dereferenceable(40) %3)
          to label %6 unwind label %10

6:                                                ; preds = %2
  call void @_ZN32pxrInternal_v0_24__pxrReserved__7VtArrayINS_7GfQuatdEED1Ev(ptr noundef nonnull align 8 dereferenceable(40) %3) #25
  %7 = call noundef nonnull align 8 dereferenceable(32) ptr @_ZN32pxrInternal_v0_24__pxrReserved__7VtArrayINS_7GfQuatdEEixEm(ptr noundef nonnull align 8 dereferenceable(40) %0, i64 noundef 0)
  store double 1.000000e+00, ptr %7, align 8
  %.sroa.220.0..sroa_idx = getelementptr inbounds i8, ptr %7, i64 8
  store double 1.000000e+00, ptr %.sroa.220.0..sroa_idx, align 8
  %.sroa.321.0..sroa_idx = getelementptr inbounds i8, ptr %7, i64 16
  store double 1.000000e+00, ptr %.sroa.321.0..sroa_idx, align 8
  %.sroa.422.0..sroa_idx = getelementptr inbounds i8, ptr %7, i64 24
  store double 1.000000e+00, ptr %.sroa.422.0..sroa_idx, align 8
  %8 = call noundef nonnull align 8 dereferenceable(32) ptr @_ZN32pxrInternal_v0_24__pxrReserved__7VtArrayINS_7GfQuatdEEixEm(ptr noundef nonnull align 8 dereferenceable(40) %0, i64 noundef 1)
  store double 2.000000e+00, ptr %8, align 8
  %.sroa.213.0..sroa_idx = getelementptr inbounds i8, ptr %8, i64 8
  store double 2.000000e+00, ptr %.sroa.213.0..sroa_idx, align 8
  %.sroa.314.0..sroa_idx = getelementptr inbounds i8, ptr %8, i64 16
  store double 2.000000e+00, ptr %.sroa.314.0..sroa_idx, align 8
  %.sroa.415.0..sroa_idx = getelementptr inbounds i8, ptr %8, i64 24
  store double 2.000000e+00, ptr %.sroa.415.0..sroa_idx, align 8
  %9 = call noundef nonnull align 8 dereferenceable(32) ptr @_ZN32pxrInternal_v0_24__pxrReserved__7VtArrayINS_7GfQuatdEEixEm(ptr noundef nonnull align 8 dereferenceable(40) %0, i64 noundef 2)
  store double 3.000000e+00, ptr %9, align 8
  %.sroa.27.0..sroa_idx = getelementptr inbounds i8, ptr %9, i64 8
  store double 3.000000e+00, ptr %.sroa.27.0..sroa_idx, align 8
  %.sroa.38.0..sroa_idx = getelementptr inbounds i8, ptr %9, i64 16
  store double 3.000000e+00, ptr %.sroa.38.0..sroa_idx, align 8
  %.sroa.4.0..sroa_idx = getelementptr inbounds i8, ptr %9, i64 24
  store double 3.000000e+00, ptr %.sroa.4.0..sroa_idx, align 8
  ret void

10:                                               ; preds = %2
  %11 = landingpad { ptr, i32 }
          cleanup
  call void @_ZN32pxrInternal_v0_24__pxrReserved__7VtArrayINS_7GfQuatdEED1Ev(ptr noundef nonnull align 8 dereferenceable(40) %3) #25
  resume { ptr, i32 } %11
}